(dp0
S'klyph pro for facebook'
p1
S'https://play.google.com/store/apps/details?id=com.abewy.klyph.pro'
p2
sS'fast for facebook'
p3
S'https://play.google.com/store/apps/details?id=app.fastfacebook.com'
p4
sS'klyph for facebook old devices'
p5
S'https://play.google.com/store/apps/details?id=com.abewy.klyph_beta.old'
p6
sS'klyph for facebook'
p7
S'https://play.google.com/store/apps/details?id=com.abewy.klyph_beta'
p8
sS'facebook'
p9
S'https://play.google.com/store/apps/details?id=com.facebook.katana'
p10
sS'fast pro for facebook'
p11
S'https://play.google.com/store/apps/details?id=app.fastpro.com'
p12
sS'spatio (facebook client)'
p13
S'https://play.google.com/store/apps/details?id=com.spatiolabs.spatio'
p14
s.