(dp0
S'swype keyboard'
p1
S'https://play.google.com/store/apps/details?id=com.nuance.swype.dtc'
p2
sS'google keyboard'
p3
S'https://play.google.com/store/apps/details?id=com.google.android.inputmethod.latin&hl=en'
p4
sS'go keyboard'
p5
S'https://play.google.com/store/apps/details?id=com.jb.gokeyboard'
p6
sS'swiftkey keyboard'
p7
S'https://play.google.com/store/apps/details?id=com.touchtype.swiftkey'
p8
sS'swype keyboard free'
p9
S'https://play.google.com/store/apps/details?id=com.nuance.swype.trial'
p10
sS'swiftkey keyboard free'
p11
S'https://play.google.com/store/apps/details?id=com.touchtype.swiftkey.phone.trial'
p12
sS'kii keyboard'
p13
S'https://play.google.com/store/apps/details?id=com.zl.inputmethod.latin'
p14
s.