(dp0
S'reddit sync classic'
p1
S'https://play.google.com/store/apps/details?id=com.laurencedawson.reddit_sync.classic'
p2
sS'reddit is fun golden platinum'
p3
S'https://play.google.com/store/apps/details?id=com.andrewshu.android.redditdonation'
p4
sS'reddit sync'
p5
S'https://play.google.com/store/apps/details?id=com.laurencedawson.reddit_sync&hl=en'
p6
sS'flow for reddit'
p7
S'https://play.google.com/store/apps/details?id=com.deeptrouble.yaarreddit'
p8
sS'reddit is fun'
p9
S'https://play.google.com/store/apps/details?id=com.andrewshu.android.reddit'
p10
sS'reddit news'
p11
S'https://play.google.com/store/apps/details?id=reddit.news'
p12
sS'baconreader for reddit'
p13
S'https://play.google.com/store/apps/details?id=com.onelouder.baconreader'
p14
sS'reddit sync pro'
p15
S'https://play.google.com/store/apps/details?id=com.laurencedawson.reddit_sync.pro&hl=en'
p16
sS'reddit sync dev'
p17
S'https://play.google.com/store/apps/details?id=com.laurencedawson.reddit_sync.dev'
p18
sS'baconreader premium for reddit'
p19
S'https://play.google.com/store/apps/details?id=com.onelouder.baconreader.premium'
p20
sS'reddit news free'
p21
S'https://play.google.com/store/apps/details?id=free.reddit.news'
p22
s.