(dp0
S'google hangouts'
p1
S'https://play.google.com/store/apps/details?id=com.google.android.talk'
p2
sS'chomp sms'
p3
S'https://play.google.com/store/apps/details?id=com.p1.chompsms'
p4
sS'go sms pro'
p5
S'https://play.google.com/store/apps/details?id=com.jb.gosms'
p6
sS'8sms (stock messaging, kitkat)'
p7
S'https://play.google.com/store/apps/details?id=com.thinkleft.eightyeightsms.mms'
p8
sS'handcent sms'
p9
S'https://play.google.com/store/apps/details?id=com.handcent.nextsms'
p10
sS'textra sms'
p11
S'https://play.google.com/store/apps/details?id=com.textra'
p12
sS'sliding messaging pro'
p13
S'https://play.google.com/store/apps/details?id=com.klinker.android.messaging_donate'
p14
s.